; Function Attrs: mustprogress uwtable
define hidden void @_ZN4cvc58internal4prop11TheoryProxy22notifySkolemDefinitionENS0_12NodeTemplateILb1EEENS3_ILb0EEE(ptr noundef nonnull readonly align 8 captures(none) dereferenceable(521) %0, ptr noundef readonly captures(none) %1, ptr noundef readonly captures(none) %2) local_unnamed_addr #4 align 2 personality ptr @__gxx_personality_v0 {
  %4 = alloca %"class.cvc5::internal::NodeTemplate.479", align 8
  %5 = alloca %"class.cvc5::internal::NodeTemplate", align 8
  %6 = getelementptr inbounds nuw i8, ptr %0, i64 440
  %7 = load ptr, ptr %6, align 8, !tbaa !91
  %8 = load ptr, ptr %2, align 8, !tbaa !383
  store ptr %8, ptr %4, align 8, !tbaa !383
  %9 = load ptr, ptr %1, align 8, !tbaa !379
  store ptr %9, ptr %5, align 8, !tbaa !379
  %10 = load i64, ptr %9, align 8
  %11 = lshr i64 %10, 40
  %12 = trunc nuw nsw i64 %11 to i32
  %13 = and i32 %12, 1048575
  %14 = icmp samesign ult i32 %13, 1048574
  br i1 %14, label %15, label %20, !prof !382

15:                                               ; preds = %3
  %16 = add i64 %10, 1099511627776
  %17 = and i64 %16, 1152920405095219200
  %18 = and i64 %10, -1152920405095219201
  %19 = or disjoint i64 %17, %18
  store i64 %19, ptr %9, align 8
  br label %_ZN4cvc58internal12NodeTemplateILb1EEC2ERKS2_.exit

20:                                               ; preds = %3
  %21 = icmp eq i32 %13, 1048574
  br i1 %21, label %22, label %_ZN4cvc58internal12NodeTemplateILb1EEC2ERKS2_.exit, !prof !381

22:                                               ; preds = %20
  %23 = or i64 %10, 1152920405095219200
  store i64 %23, ptr %9, align 8
  tail call void @_ZN4cvc58internal4expr9NodeValue20markRefCountMaxedOutEv(ptr noundef nonnull align 8 dereferenceable(24) %9)
  br label %_ZN4cvc58internal12NodeTemplateILb1EEC2ERKS2_.exit

_ZN4cvc58internal12NodeTemplateILb1EEC2ERKS2_.exit: ; preds = %22, %20, %15
  invoke void @_ZN4cvc58internal4prop16SkolemDefManager22notifySkolemDefinitionENS0_12NodeTemplateILb0EEENS3_ILb1EEE(ptr noundef nonnull align 8 dereferenceable(224) %7, ptr noundef nonnull %4, ptr noundef nonnull %5)
          to label %24 unwind label %38

24:                                               ; preds = %_ZN4cvc58internal12NodeTemplateILb1EEC2ERKS2_.exit
  %25 = load ptr, ptr %5, align 8, !tbaa !379
  %26 = load i64, ptr %25, align 8
  %27 = and i64 %26, 1152920405095219200
  %.not.i.i = icmp eq i64 %27, 1152920405095219200
  br i1 %.not.i.i, label %_ZN4cvc58internal12NodeTemplateILb1EED2Ev.exit, label %28, !prof !381

28:                                               ; preds = %24
  %29 = add i64 %26, 1152920405095219200
  %30 = and i64 %29, 1152920405095219200
  %31 = and i64 %26, -1152920405095219201
  %32 = or disjoint i64 %30, %31
  store i64 %32, ptr %25, align 8
  %33 = icmp eq i64 %30, 0
  br i1 %33, label %34, label %_ZN4cvc58internal12NodeTemplateILb1EED2Ev.exit, !prof !381

34:                                               ; preds = %28
  invoke void @_ZN4cvc58internal4expr9NodeValue15markForDeletionEv(ptr noundef nonnull align 8 dereferenceable(24) %25)
          to label %_ZN4cvc58internal12NodeTemplateILb1EED2Ev.exit unwind label %35

35:                                               ; preds = %34
  %36 = landingpad { ptr, i32 }
          catch ptr null
  %37 = extractvalue { ptr, i32 } %36, 0
  call void @__clang_call_terminate(ptr %37) #27
  unreachable

_ZN4cvc58internal12NodeTemplateILb1EED2Ev.exit:   ; preds = %24, %28, %34
  ret void

38:                                               ; preds = %_ZN4cvc58internal12NodeTemplateILb1EEC2ERKS2_.exit
  %39 = landingpad { ptr, i32 }
          cleanup
  call void @_ZN4cvc58internal12NodeTemplateILb1EED2Ev(ptr noundef nonnull align 8 dereferenceable(8) %5) #26
  resume { ptr, i32 } %39
}